Certificate:
    Data:
        Version: 1 (0x0)
        Serial Number:
            6f:38:e8:6f:41:98:67:62:8b:71:c9:b2:c3:71:2f:59:88:0c:7c:3a
        Signature Algorithm: sha256WithRSAEncryption
        Issuer: CN = rootGTOverseer
        Validity
            Not Before: Dec 28 04:04:48 2024 GMT
            Not After : Dec 28 04:04:48 2025 GMT
        Subject: CN = 10.22.32.4
        Subject Public Key Info:
            Public Key Algorithm: rsaEncryption
                Public-Key: (2048 bit)
                Modulus:
                    00:9b:20:4e:87:bf:2e:6d:49:ed:66:10:a2:9e:eb:
                    97:b7:c4:f9:cb:20:38:fd:c4:15:2b:90:08:33:da:
                    7f:c4:05:db:be:e8:82:4e:b3:a6:68:c1:a7:24:9e:
                    9a:00:2d:8d:ec:04:73:98:c1:41:8d:57:a9:2c:21:
                    5c:b3:ad:18:9e:fe:88:30:6d:53:a9:22:61:99:f2:
                    24:9f:6f:5d:6e:06:49:26:ff:29:4e:e1:53:08:70:
                    ae:44:46:6e:8a:89:25:fd:bb:83:bf:85:d5:e4:5a:
                    3f:34:e9:cb:06:89:5f:d0:52:60:c2:b8:55:e5:7d:
                    a5:b1:95:57:eb:15:84:c2:4e:15:ef:74:a3:91:80:
                    1e:07:b4:bd:90:9f:f2:36:ec:94:d3:90:96:7a:7b:
                    3e:15:17:89:ff:a8:fd:8d:da:34:e0:58:04:44:5a:
                    96:ac:c0:2f:32:8f:9a:37:3e:ab:e5:32:82:09:df:
                    cc:25:a0:4f:9f:f2:63:43:a9:b1:14:9a:13:29:09:
                    a0:cc:3a:df:f9:75:5e:cf:79:e4:33:4a:8e:e8:ba:
                    7f:1b:6a:cd:4a:56:72:6a:bf:16:7d:c2:1e:c7:68:
                    2e:be:e7:6c:dc:3d:9f:50:7f:52:71:7e:75:6c:6f:
                    c5:76:ee:a5:1d:d3:fb:b7:fe:c5:50:76:36:9f:e1:
                    f0:b9
                Exponent: 65537 (0x10001)
    Signature Algorithm: sha256WithRSAEncryption
    Signature Value:
        ab:29:a6:b7:06:9f:ca:7b:b4:eb:76:a1:c0:06:fd:72:72:23:
        a4:c4:c6:33:4b:d2:71:b2:23:33:74:16:83:bf:33:34:43:38:
        e7:bd:32:39:39:99:e8:fc:1c:f9:f0:93:48:be:27:23:61:f3:
        86:fe:66:f4:2a:c2:ec:d3:4d:ad:ee:21:d0:75:29:2f:97:0a:
        b7:cb:2b:0c:ef:78:42:49:3a:5a:3a:75:3f:79:30:6a:40:3b:
        a8:08:94:53:aa:d9:07:e9:89:27:87:d8:a0:c2:b2:fe:28:1c:
        c6:54:04:60:db:99:f9:44:f8:c9:93:c5:2e:8f:d0:45:bb:1d:
        49:46:34:a4:a0:7d:3f:6a:f8:ef:c9:7f:9e:4f:0a:58:f5:58:
        a3:60:9e:85:9e:60:b8:44:60:42:26:fb:81:22:48:df:c4:e1:
        fc:de:0e:c9:a6:00:f7:ae:e2:53:c8:e5:cc:42:ce:29:0a:4b:
        e1:61:c1:0b:d3:a2:c0:5d:85:ae:6d:64:fa:7d:90:2b:6b:97:
        85:4a:24:e7:a2:71:e4:06:74:f9:45:e1:65:e2:17:2c:0f:d0:
        13:80:4c:5d:98:26:f2:c5:fa:8c:1e:e8:6c:f7:38:07:9c:4a:
        3f:56:8e:62:96:c9:2f:8e:d1:af:b6:80:9b:85:f1:c0:80:80:
        47:15:2d:f3
-----BEGIN CERTIFICATE-----
MIICtTCCAZ0CFG846G9BmGdii3HJssNxL1mIDHw6MA0GCSqGSIb3DQEBCwUAMBkx
FzAVBgNVBAMMDnJvb3RHVE92ZXJzZWVyMB4XDTI0MTIyODA0MDQ0OFoXDTI1MTIy
ODA0MDQ0OFowFTETMBEGA1UEAwwKMTAuMjIuMzIuNDCCASIwDQYJKoZIhvcNAQEB
BQADggEPADCCAQoCggEBAJsgToe/Lm1J7WYQop7rl7fE+csgOP3EFSuQCDPaf8QF
277ogk6zpmjBpySemgAtjewEc5jBQY1XqSwhXLOtGJ7+iDBtU6kiYZnyJJ9vXW4G
SSb/KU7hUwhwrkRGboqJJf27g7+F1eRaPzTpywaJX9BSYMK4VeV9pbGVV+sVhMJO
Fe90o5GAHge0vZCf8jbslNOQlnp7PhUXif+o/Y3aNOBYBERalqzALzKPmjc+q+Uy
ggnfzCWgT5/yY0OpsRSaEykJoMw63/l1Xs955DNKjui6fxtqzUpWcmq/Fn3CHsdo
Lr7nbNw9n1B/UnF+dWxvxXbupR3T+7f+xVB2Np/h8LkCAwEAATANBgkqhkiG9w0B
AQsFAAOCAQEAqymmtwafynu063ahwAb9cnIjpMTGM0vScbIjM3QWg78zNEM4570y
OTmZ6Pwc+fCTSL4nI2Hzhv5m9CrC7NNNre4h0HUpL5cKt8srDO94Qkk6Wjp1P3kw
akA7qAiUU6rZB+mJJ4fYoMKy/igcxlQEYNuZ+UT4yZPFLo/QRbsdSUY0pKB9P2r4
78l/nk8KWPVYo2CehZ5guERgQib7gSJI38Th/N4OyaYA967iU8jlzELOKQpL4WHB
C9OiwF2Frm1k+n2QK2uXhUok56Jx5AZ0+UXhZeIXLA/QE4BMXZgm8sX6jB7obPc4
B5xKP1aOYpbJL47Rr7aAm4XxwICARxUt8w==
-----END CERTIFICATE-----
